target datalayout = "e-m:e-p270:32:32-p271:32:32-p272:64:64-i64:64-i128:128-f80:128-n8:16:32:64-S128"
target triple = "x86_64-pc-linux-gnu"

; Function Attrs: nounwind uwtable
define internal ptr @appendEncodedByte(ptr noundef %0, ptr noundef %1, i8 noundef zeroext %2, ptr noundef %3, ptr noundef %4) #0 {
  %6 = alloca ptr, align 8
  %7 = alloca ptr, align 8
  %8 = alloca ptr, align 8
  %9 = alloca i8, align 1
  %10 = alloca ptr, align 8
  %11 = alloca ptr, align 8
  %12 = alloca i16, align 2
  store ptr %0, ptr %7, align 8, !tbaa !4
  store ptr %1, ptr %8, align 8, !tbaa !4
  store i8 %2, ptr %9, align 1, !tbaa !19
  store ptr %3, ptr %10, align 8, !tbaa !17
  store ptr %4, ptr %11, align 8, !tbaa !11
  %13 = load ptr, ptr %11, align 8, !tbaa !11
  %14 = icmp ne ptr %13, null
  br i1 %14, label %15, label %19

15:                                               ; preds = %5
  %16 = load ptr, ptr %11, align 8, !tbaa !11
  %17 = load i32, ptr %16, align 4, !tbaa !9
  %18 = icmp sgt i32 %17, 0
  br i1 %18, label %19, label %20

19:                                               ; preds = %15, %5
  store ptr null, ptr %6, align 8
  br label %57

20:                                               ; preds = %15
  %21 = load ptr, ptr %10, align 8, !tbaa !17
  %22 = getelementptr inbounds i8, ptr %21, i64 0
  %23 = load i8, ptr %22, align 1, !tbaa !19
  %24 = zext i8 %23 to i32
  %25 = icmp ne i32 %24, 0
  br i1 %25, label %26, label %50

26:                                               ; preds = %20
  call void @llvm.lifetime.start.p0(i64 2, ptr %12) #4
  %27 = load ptr, ptr %10, align 8, !tbaa !17
  %28 = getelementptr inbounds i8, ptr %27, i64 1
  %29 = load i8, ptr %28, align 1, !tbaa !19
  %30 = zext i8 %29 to i32
  %31 = shl i32 %30, 8
  %32 = load i8, ptr %9, align 1, !tbaa !19
  %33 = zext i8 %32 to i32
  %34 = and i32 %33, 255
  %35 = or i32 %31, %34
  %36 = trunc i32 %35 to i16
  store i16 %36, ptr %12, align 2, !tbaa !12
  %37 = load ptr, ptr %7, align 8, !tbaa !4
  %38 = load ptr, ptr %8, align 8, !tbaa !4
  %39 = icmp ult ptr %37, %38
  br i1 %39, label %40, label %44

40:                                               ; preds = %26
  %41 = load i16, ptr %12, align 2, !tbaa !12
  %42 = load ptr, ptr %7, align 8, !tbaa !4
  %43 = getelementptr inbounds nuw i16, ptr %42, i32 1
  store ptr %43, ptr %7, align 8, !tbaa !4
  store i16 %41, ptr %42, align 2, !tbaa !12
  br label %46

44:                                               ; preds = %26
  %45 = load ptr, ptr %11, align 8, !tbaa !11
  store i32 15, ptr %45, align 4, !tbaa !9
  br label %46

46:                                               ; preds = %44, %40
  %47 = load ptr, ptr %10, align 8, !tbaa !17
  %48 = getelementptr inbounds i8, ptr %47, i64 0
  store i8 0, ptr %48, align 1, !tbaa !19
  %49 = load ptr, ptr %7, align 8, !tbaa !4
  store ptr %49, ptr %6, align 8
  call void @llvm.lifetime.end.p0(i64 2, ptr %12) #4
  br label %57

50:                                               ; preds = %20
  %51 = load ptr, ptr %10, align 8, !tbaa !17
  %52 = getelementptr inbounds i8, ptr %51, i64 0
  store i8 1, ptr %52, align 1, !tbaa !19
  %53 = load i8, ptr %9, align 1, !tbaa !19
  %54 = load ptr, ptr %10, align 8, !tbaa !17
  %55 = getelementptr inbounds i8, ptr %54, i64 1
  store i8 %53, ptr %55, align 1, !tbaa !19
  %56 = load ptr, ptr %7, align 8, !tbaa !4
  store ptr %56, ptr %6, align 8
  br label %57

57:                                               ; preds = %50, %46, %19
  %58 = load ptr, ptr %6, align 8
  ret ptr %58
}

; Function Attrs: nounwind uwtable
define dso_local i32 @byteArrayToRLEString(ptr noundef %0, i32 noundef %1, ptr noundef %2, i32 noundef %3, ptr noundef %4) #0 {
  %6 = alloca ptr, align 8
  %7 = alloca i32, align 4
  %8 = alloca ptr, align 8
  %9 = alloca i32, align 4
  %10 = alloca ptr, align 8
  %11 = alloca ptr, align 8
  %12 = alloca ptr, align 8
  %13 = alloca i8, align 1
  %14 = alloca i32, align 4
  %15 = alloca [2 x i8], align 1
  %16 = alloca i32, align 4
  %17 = alloca i8, align 1
  store ptr %0, ptr %6, align 8, !tbaa !17
  store i32 %1, ptr %7, align 4, !tbaa !9
  store ptr %2, ptr %8, align 8, !tbaa !4
  store i32 %3, ptr %9, align 4, !tbaa !9
  store ptr %4, ptr %10, align 8, !tbaa !11
  call void @llvm.lifetime.start.p0(i64 8, ptr %11) #4
  %18 = load ptr, ptr %8, align 8, !tbaa !4
  store ptr %18, ptr %11, align 8, !tbaa !4
  call void @llvm.lifetime.start.p0(i64 8, ptr %12) #4
  %19 = load ptr, ptr %8, align 8, !tbaa !4
  %20 = load i32, ptr %9, align 4, !tbaa !9
  %21 = sext i32 %20 to i64
  %22 = getelementptr inbounds i16, ptr %19, i64 %21
  store ptr %22, ptr %12, align 8, !tbaa !4
  %23 = load ptr, ptr %8, align 8, !tbaa !4
  %24 = load ptr, ptr %12, align 8, !tbaa !4
  %25 = icmp ult ptr %23, %24
  br i1 %25, label %26, label %99

26:                                               ; preds = %5
  %27 = load i32, ptr %7, align 4, !tbaa !9
  %28 = ashr i32 %27, 16
  %29 = trunc i32 %28 to i16
  %30 = load ptr, ptr %8, align 8, !tbaa !4
  %31 = getelementptr inbounds nuw i16, ptr %30, i32 1
  store ptr %31, ptr %8, align 8, !tbaa !4
  store i16 %29, ptr %30, align 2, !tbaa !12
  %32 = load ptr, ptr %8, align 8, !tbaa !4
  %33 = load ptr, ptr %12, align 8, !tbaa !4
  %34 = icmp ult ptr %32, %33
  br i1 %34, label %35, label %96

35:                                               ; preds = %26
  call void @llvm.lifetime.start.p0(i64 1, ptr %13) #4
  %36 = load ptr, ptr %6, align 8, !tbaa !17
  %37 = getelementptr inbounds i8, ptr %36, i64 0
  %38 = load i8, ptr %37, align 1, !tbaa !19
  store i8 %38, ptr %13, align 1, !tbaa !19
  call void @llvm.lifetime.start.p0(i64 4, ptr %14) #4
  store i32 1, ptr %14, align 4, !tbaa !9
  call void @llvm.lifetime.start.p0(i64 2, ptr %15) #4
  call void @llvm.memset.p0.i64(ptr align 1 %15, i8 0, i64 2, i1 false)
  call void @llvm.lifetime.start.p0(i64 4, ptr %16) #4
  store i32 1, ptr %16, align 4, !tbaa !9
  %39 = load i32, ptr %7, align 4, !tbaa !9
  %40 = trunc i32 %39 to i16
  %41 = load ptr, ptr %8, align 8, !tbaa !4
  %42 = getelementptr inbounds nuw i16, ptr %41, i32 1
  store ptr %42, ptr %8, align 8, !tbaa !4
  store i16 %40, ptr %41, align 2, !tbaa !12
  br label %43

43:                                               ; preds = %74, %35
  %44 = load i32, ptr %16, align 4, !tbaa !9
  %45 = load i32, ptr %7, align 4, !tbaa !9
  %46 = icmp slt i32 %44, %45
  br i1 %46, label %47, label %77

47:                                               ; preds = %43
  call void @llvm.lifetime.start.p0(i64 1, ptr %17) #4
  %48 = load ptr, ptr %6, align 8, !tbaa !17
  %49 = load i32, ptr %16, align 4, !tbaa !9
  %50 = sext i32 %49 to i64
  %51 = getelementptr inbounds i8, ptr %48, i64 %50
  %52 = load i8, ptr %51, align 1, !tbaa !19
  store i8 %52, ptr %17, align 1, !tbaa !19
  %53 = load i8, ptr %17, align 1, !tbaa !19
  %54 = zext i8 %53 to i32
  %55 = load i8, ptr %13, align 1, !tbaa !19
  %56 = zext i8 %55 to i32
  %57 = icmp eq i32 %54, %56
  br i1 %57, label %58, label %64

58:                                               ; preds = %47
  %59 = load i32, ptr %14, align 4, !tbaa !9
  %60 = icmp slt i32 %59, 255
  br i1 %60, label %61, label %64

61:                                               ; preds = %58
  %62 = load i32, ptr %14, align 4, !tbaa !9
  %63 = add nsw i32 %62, 1
  store i32 %63, ptr %14, align 4, !tbaa !9
  br label %73

64:                                               ; preds = %58, %47
  %65 = load ptr, ptr %8, align 8, !tbaa !4
  %66 = load ptr, ptr %12, align 8, !tbaa !4
  %67 = load i8, ptr %13, align 1, !tbaa !19
  %68 = load i32, ptr %14, align 4, !tbaa !9
  %69 = getelementptr inbounds [2 x i8], ptr %15, i64 0, i64 0
  %70 = load ptr, ptr %10, align 8, !tbaa !11
  %71 = call ptr @encodeRunByte(ptr noundef %65, ptr noundef %66, i8 noundef zeroext %67, i32 noundef %68, ptr noundef %69, ptr noundef %70)
  store ptr %71, ptr %8, align 8, !tbaa !4
  %72 = load i8, ptr %17, align 1, !tbaa !19
  store i8 %72, ptr %13, align 1, !tbaa !19
  store i32 1, ptr %14, align 4, !tbaa !9
  br label %73

73:                                               ; preds = %64, %61
  call void @llvm.lifetime.end.p0(i64 1, ptr %17) #4
  br label %74

74:                                               ; preds = %73
  %75 = load i32, ptr %16, align 4, !tbaa !9
  %76 = add nsw i32 %75, 1
  store i32 %76, ptr %16, align 4, !tbaa !9
  br label %43, !llvm.loop !20

77:                                               ; preds = %43
  %78 = load ptr, ptr %8, align 8, !tbaa !4
  %79 = load ptr, ptr %12, align 8, !tbaa !4
  %80 = load i8, ptr %13, align 1, !tbaa !19
  %81 = load i32, ptr %14, align 4, !tbaa !9
  %82 = getelementptr inbounds [2 x i8], ptr %15, i64 0, i64 0
  %83 = load ptr, ptr %10, align 8, !tbaa !11
  %84 = call ptr @encodeRunByte(ptr noundef %78, ptr noundef %79, i8 noundef zeroext %80, i32 noundef %81, ptr noundef %82, ptr noundef %83)
  store ptr %84, ptr %8, align 8, !tbaa !4
  %85 = getelementptr inbounds [2 x i8], ptr %15, i64 0, i64 0
  %86 = load i8, ptr %85, align 1, !tbaa !19
  %87 = zext i8 %86 to i32
  %88 = icmp ne i32 %87, 0
  br i1 %88, label %89, label %95

89:                                               ; preds = %77
  %90 = load ptr, ptr %8, align 8, !tbaa !4
  %91 = load ptr, ptr %12, align 8, !tbaa !4
  %92 = getelementptr inbounds [2 x i8], ptr %15, i64 0, i64 0
  %93 = load ptr, ptr %10, align 8, !tbaa !11
  %94 = call ptr @appendEncodedByte(ptr noundef %90, ptr noundef %91, i8 noundef zeroext 0, ptr noundef %92, ptr noundef %93)
  store ptr %94, ptr %8, align 8, !tbaa !4
  br label %95

95:                                               ; preds = %89, %77
  call void @llvm.lifetime.end.p0(i64 4, ptr %16) #4
  call void @llvm.lifetime.end.p0(i64 2, ptr %15) #4
  call void @llvm.lifetime.end.p0(i64 4, ptr %14) #4
  call void @llvm.lifetime.end.p0(i64 1, ptr %13) #4
  br label %98

96:                                               ; preds = %26
  %97 = load ptr, ptr %10, align 8, !tbaa !11
  store i32 15, ptr %97, align 4, !tbaa !9
  br label %98

98:                                               ; preds = %96, %95
  br label %101

99:                                               ; preds = %5
  %100 = load ptr, ptr %10, align 8, !tbaa !11
  store i32 15, ptr %100, align 4, !tbaa !9
  br label %101

101:                                              ; preds = %99, %98
  %102 = load ptr, ptr %8, align 8, !tbaa !4
  %103 = load ptr, ptr %11, align 8, !tbaa !4
  %104 = ptrtoint ptr %102 to i64
  %105 = ptrtoint ptr %103 to i64
  %106 = sub i64 %104, %105
  %107 = sdiv exact i64 %106, 2
  %108 = trunc i64 %107 to i32
  call void @llvm.lifetime.end.p0(i64 8, ptr %12) #4
  call void @llvm.lifetime.end.p0(i64 8, ptr %11) #4
  ret i32 %108
}