; Function Attrs: nofree norecurse nosync nounwind memory(readwrite, inaccessiblemem: none) uwtable
define dso_local i32 @byteArrayToRLEString(ptr noundef readonly captures(none) %0, i32 noundef %1, ptr noundef %2, i32 noundef %3, ptr noundef %4) local_unnamed_addr #2 {
  %6 = alloca [2 x i8], align 2
  %7 = sext i32 %3 to i64
  %.idx = shl nsw i64 %7, 1
  %8 = getelementptr inbounds i8, ptr %2, i64 %.idx
  %9 = icmp sgt i32 %3, 0
  br i1 %9, label %10, label %44

10:                                               ; preds = %5
  %11 = lshr i32 %1, 16
  %12 = trunc nuw i32 %11 to i16
  %13 = getelementptr inbounds nuw i8, ptr %2, i64 2
  store i16 %12, ptr %2, align 2, !tbaa !4
  %.not = icmp eq i32 %3, 1
  br i1 %.not, label %43, label %14

14:                                               ; preds = %10
  %15 = load i8, ptr %0, align 1, !tbaa !13
  call void @llvm.lifetime.start.p0(i64 2, ptr nonnull %6) #6
  store i16 0, ptr %6, align 2
  %16 = trunc i32 %1 to i16
  %17 = getelementptr inbounds nuw i8, ptr %2, i64 4
  store i16 %16, ptr %13, align 2, !tbaa !4
  %18 = icmp sgt i32 %1, 1
  br i1 %18, label %.lr.ph.preheader, label %._crit_edge

.lr.ph.preheader:                                 ; preds = %14
  %wide.trip.count = zext nneg i32 %1 to i64
  br label %.lr.ph

.lr.ph:                                           ; preds = %.lr.ph.preheader, %27
  %indvars.iv = phi i64 [ 1, %.lr.ph.preheader ], [ %indvars.iv.next, %27 ]
  %.053 = phi ptr [ %17, %.lr.ph.preheader ], [ %.1, %27 ]
  %.04051 = phi i32 [ 1, %.lr.ph.preheader ], [ %.141, %27 ]
  %.04250 = phi i8 [ %15, %.lr.ph.preheader ], [ %.143, %27 ]
  %19 = getelementptr inbounds nuw i8, ptr %0, i64 %indvars.iv
  %20 = load i8, ptr %19, align 1, !tbaa !13
  %21 = icmp eq i8 %20, %.04250
  %22 = icmp slt i32 %.04051, 255
  %or.cond = select i1 %21, i1 %22, i1 false
  br i1 %or.cond, label %23, label %25

23:                                               ; preds = %.lr.ph
  %24 = add nsw i32 %.04051, 1
  br label %27

25:                                               ; preds = %.lr.ph
  %26 = call fastcc ptr @encodeRunByte(ptr noundef %.053, ptr noundef nonnull %8, i8 noundef zeroext %.04250, i32 noundef %.04051, ptr noundef %6, ptr noundef %4)
  br label %27

27:                                               ; preds = %25, %23
  %.143 = phi i8 [ %.04250, %23 ], [ %20, %25 ]
  %.141 = phi i32 [ %24, %23 ], [ 1, %25 ]
  %.1 = phi ptr [ %.053, %23 ], [ %26, %25 ]
  %indvars.iv.next = add nuw nsw i64 %indvars.iv, 1
  %exitcond.not = icmp eq i64 %indvars.iv.next, %wide.trip.count
  br i1 %exitcond.not, label %._crit_edge, label %.lr.ph, !llvm.loop !14

._crit_edge:                                      ; preds = %27, %14
  %.042.lcssa = phi i8 [ %15, %14 ], [ %.143, %27 ]
  %.040.lcssa = phi i32 [ 1, %14 ], [ %.141, %27 ]
  %.0.lcssa = phi ptr [ %17, %14 ], [ %.1, %27 ]
  %28 = call fastcc ptr @encodeRunByte(ptr noundef %.0.lcssa, ptr noundef nonnull %8, i8 noundef zeroext %.042.lcssa, i32 noundef %.040.lcssa, ptr noundef %6, ptr noundef %4)
  %29 = load i8, ptr %6, align 2, !tbaa !13
  %.not49 = icmp eq i8 %29, 0
  br i1 %.not49, label %appendEncodedByte.exit, label %30

30:                                               ; preds = %._crit_edge
  %.not.i = icmp eq ptr %4, null
  br i1 %.not.i, label %appendEncodedByte.exit, label %31

31:                                               ; preds = %30
  %32 = load i32, ptr %4, align 4, !tbaa !8
  %33 = icmp sgt i32 %32, 0
  br i1 %33, label %appendEncodedByte.exit, label %34

34:                                               ; preds = %31
  %35 = icmp ult ptr %28, %8
  br i1 %35, label %36, label %42

36:                                               ; preds = %34
  %37 = getelementptr inbounds nuw i8, ptr %6, i64 1
  %38 = load i8, ptr %37, align 1, !tbaa !13
  %39 = zext i8 %38 to i16
  %40 = shl nuw i16 %39, 8
  %41 = getelementptr inbounds nuw i8, ptr %28, i64 2
  store i16 %40, ptr %28, align 2, !tbaa !4
  br label %appendEncodedByte.exit

42:                                               ; preds = %34
  store i32 15, ptr %4, align 4, !tbaa !8
  br label %appendEncodedByte.exit

appendEncodedByte.exit:                           ; preds = %36, %42, %31, %30, %._crit_edge
  %.2 = phi ptr [ %28, %._crit_edge ], [ null, %31 ], [ null, %30 ], [ %41, %36 ], [ %28, %42 ]
  call void @llvm.lifetime.end.p0(i64 2, ptr nonnull %6) #6
  br label %45

43:                                               ; preds = %10
  store i32 15, ptr %4, align 4, !tbaa !8
  br label %45

44:                                               ; preds = %5
  store i32 15, ptr %4, align 4, !tbaa !8
  br label %45

45:                                               ; preds = %appendEncodedByte.exit, %43, %44
  %.3 = phi ptr [ %.2, %appendEncodedByte.exit ], [ %13, %43 ], [ %2, %44 ]
  %46 = ptrtoint ptr %.3 to i64
  %47 = ptrtoint ptr %2 to i64
  %48 = sub i64 %46, %47
  %49 = lshr exact i64 %48, 1
  %50 = trunc i64 %49 to i32
  ret i32 %50
}